target datalayout = "e-m:e-p270:32:32-p271:32:32-p272:64:64-i64:64-i128:128-f80:128-n8:16:32:64-S128"
target triple = "x86_64-unknown-linux-gnu"

; Function Attrs: nounwind uwtable
define hidden i64 @mz_adler32(i64 noundef %adler, ptr noundef %ptr, i64 noundef %buf_len) #0 {
entry:
  %retval = alloca i64, align 8
  %adler.addr = alloca i64, align 8
  %ptr.addr = alloca ptr, align 8
  %buf_len.addr = alloca i64, align 8
  %i = alloca i32, align 4
  %s1 = alloca i32, align 4
  %s2 = alloca i32, align 4
  %block_len = alloca i64, align 8
  store i64 %adler, ptr %adler.addr, align 8
  store ptr %ptr, ptr %ptr.addr, align 8
  store i64 %buf_len, ptr %buf_len.addr, align 8
  %0 = load i64, ptr %adler.addr, align 8
  %and = and i64 %0, 65535
  %conv = trunc i64 %and to i32
  store i32 %conv, ptr %s1, align 4
  %1 = load i64, ptr %adler.addr, align 8
  %shr = lshr i64 %1, 16
  %conv1 = trunc i64 %shr to i32
  store i32 %conv1, ptr %s2, align 4
  %2 = load i64, ptr %buf_len.addr, align 8
  %rem = urem i64 %2, 5552
  store i64 %rem, ptr %block_len, align 8
  %3 = load ptr, ptr %ptr.addr, align 8
  %tobool = icmp ne ptr %3, null
  br i1 %tobool, label %if.end, label %if.then

if.then:                                          ; preds = %entry
  store i64 1, ptr %retval, align 8
  br label %return

if.end:                                           ; preds = %entry
  br label %while.cond

while.cond:                                       ; preds = %for.end46, %if.end
  %4 = load i64, ptr %buf_len.addr, align 8
  %tobool2 = icmp ne i64 %4, 0
  br i1 %tobool2, label %while.body, label %while.end

while.body:                                       ; preds = %while.cond
  store i32 0, ptr %i, align 4
  br label %for.cond

for.cond:                                         ; preds = %for.inc, %while.body
  %5 = load i32, ptr %i, align 4
  %add = add i32 %5, 7
  %conv3 = zext i32 %add to i64
  %6 = load i64, ptr %block_len, align 8
  %cmp = icmp ult i64 %conv3, %6
  br i1 %cmp, label %for.body, label %for.end

for.body:                                         ; preds = %for.cond
  %7 = load ptr, ptr %ptr.addr, align 8
  %arrayidx = getelementptr inbounds i8, ptr %7, i64 0
  %8 = load i8, ptr %arrayidx, align 1
  %conv5 = zext i8 %8 to i32
  %9 = load i32, ptr %s1, align 4
  %add6 = add i32 %9, %conv5
  store i32 %add6, ptr %s1, align 4
  %10 = load i32, ptr %s1, align 4
  %11 = load i32, ptr %s2, align 4
  %add7 = add i32 %11, %10
  store i32 %add7, ptr %s2, align 4
  %12 = load ptr, ptr %ptr.addr, align 8
  %arrayidx8 = getelementptr inbounds i8, ptr %12, i64 1
  %13 = load i8, ptr %arrayidx8, align 1
  %conv9 = zext i8 %13 to i32
  %14 = load i32, ptr %s1, align 4
  %add10 = add i32 %14, %conv9
  store i32 %add10, ptr %s1, align 4
  %15 = load i32, ptr %s1, align 4
  %16 = load i32, ptr %s2, align 4
  %add11 = add i32 %16, %15
  store i32 %add11, ptr %s2, align 4
  %17 = load ptr, ptr %ptr.addr, align 8
  %arrayidx12 = getelementptr inbounds i8, ptr %17, i64 2
  %18 = load i8, ptr %arrayidx12, align 1
  %conv13 = zext i8 %18 to i32
  %19 = load i32, ptr %s1, align 4
  %add14 = add i32 %19, %conv13
  store i32 %add14, ptr %s1, align 4
  %20 = load i32, ptr %s1, align 4
  %21 = load i32, ptr %s2, align 4
  %add15 = add i32 %21, %20
  store i32 %add15, ptr %s2, align 4
  %22 = load ptr, ptr %ptr.addr, align 8
  %arrayidx16 = getelementptr inbounds i8, ptr %22, i64 3
  %23 = load i8, ptr %arrayidx16, align 1
  %conv17 = zext i8 %23 to i32
  %24 = load i32, ptr %s1, align 4
  %add18 = add i32 %24, %conv17
  store i32 %add18, ptr %s1, align 4
  %25 = load i32, ptr %s1, align 4
  %26 = load i32, ptr %s2, align 4
  %add19 = add i32 %26, %25
  store i32 %add19, ptr %s2, align 4
  %27 = load ptr, ptr %ptr.addr, align 8
  %arrayidx20 = getelementptr inbounds i8, ptr %27, i64 4
  %28 = load i8, ptr %arrayidx20, align 1
  %conv21 = zext i8 %28 to i32
  %29 = load i32, ptr %s1, align 4
  %add22 = add i32 %29, %conv21
  store i32 %add22, ptr %s1, align 4
  %30 = load i32, ptr %s1, align 4
  %31 = load i32, ptr %s2, align 4
  %add23 = add i32 %31, %30
  store i32 %add23, ptr %s2, align 4
  %32 = load ptr, ptr %ptr.addr, align 8
  %arrayidx24 = getelementptr inbounds i8, ptr %32, i64 5
  %33 = load i8, ptr %arrayidx24, align 1
  %conv25 = zext i8 %33 to i32
  %34 = load i32, ptr %s1, align 4
  %add26 = add i32 %34, %conv25
  store i32 %add26, ptr %s1, align 4
  %35 = load i32, ptr %s1, align 4
  %36 = load i32, ptr %s2, align 4
  %add27 = add i32 %36, %35
  store i32 %add27, ptr %s2, align 4
  %37 = load ptr, ptr %ptr.addr, align 8
  %arrayidx28 = getelementptr inbounds i8, ptr %37, i64 6
  %38 = load i8, ptr %arrayidx28, align 1
  %conv29 = zext i8 %38 to i32
  %39 = load i32, ptr %s1, align 4
  %add30 = add i32 %39, %conv29
  store i32 %add30, ptr %s1, align 4
  %40 = load i32, ptr %s1, align 4
  %41 = load i32, ptr %s2, align 4
  %add31 = add i32 %41, %40
  store i32 %add31, ptr %s2, align 4
  %42 = load ptr, ptr %ptr.addr, align 8
  %arrayidx32 = getelementptr inbounds i8, ptr %42, i64 7
  %43 = load i8, ptr %arrayidx32, align 1
  %conv33 = zext i8 %43 to i32
  %44 = load i32, ptr %s1, align 4
  %add34 = add i32 %44, %conv33
  store i32 %add34, ptr %s1, align 4
  %45 = load i32, ptr %s1, align 4
  %46 = load i32, ptr %s2, align 4
  %add35 = add i32 %46, %45
  store i32 %add35, ptr %s2, align 4
  br label %for.inc

for.inc:                                          ; preds = %for.body
  %47 = load i32, ptr %i, align 4
  %add36 = add i32 %47, 8
  store i32 %add36, ptr %i, align 4
  %48 = load ptr, ptr %ptr.addr, align 8
  %add.ptr = getelementptr inbounds i8, ptr %48, i64 8
  store ptr %add.ptr, ptr %ptr.addr, align 8
  br label %for.cond, !llvm.loop !4

for.end:                                          ; preds = %for.cond
  br label %for.cond37

for.cond37:                                       ; preds = %for.inc45, %for.end
  %49 = load i32, ptr %i, align 4
  %conv38 = zext i32 %49 to i64
  %50 = load i64, ptr %block_len, align 8
  %cmp39 = icmp ult i64 %conv38, %50
  br i1 %cmp39, label %for.body41, label %for.end46

for.body41:                                       ; preds = %for.cond37
  %51 = load ptr, ptr %ptr.addr, align 8
  %incdec.ptr = getelementptr inbounds i8, ptr %51, i32 1
  store ptr %incdec.ptr, ptr %ptr.addr, align 8
  %52 = load i8, ptr %51, align 1
  %conv42 = zext i8 %52 to i32
  %53 = load i32, ptr %s1, align 4
  %add43 = add i32 %53, %conv42
  store i32 %add43, ptr %s1, align 4
  %54 = load i32, ptr %s1, align 4
  %55 = load i32, ptr %s2, align 4
  %add44 = add i32 %55, %54
  store i32 %add44, ptr %s2, align 4
  br label %for.inc45

for.inc45:                                        ; preds = %for.body41
  %56 = load i32, ptr %i, align 4
  %inc = add i32 %56, 1
  store i32 %inc, ptr %i, align 4
  br label %for.cond37, !llvm.loop !6

for.end46:                                        ; preds = %for.cond37
  %57 = load i32, ptr %s1, align 4
  %rem47 = urem i32 %57, 65521
  store i32 %rem47, ptr %s1, align 4
  %58 = load i32, ptr %s2, align 4
  %rem48 = urem i32 %58, 65521
  store i32 %rem48, ptr %s2, align 4
  %59 = load i64, ptr %block_len, align 8
  %60 = load i64, ptr %buf_len.addr, align 8
  %sub = sub i64 %60, %59
  store i64 %sub, ptr %buf_len.addr, align 8
  store i64 5552, ptr %block_len, align 8
  br label %while.cond, !llvm.loop !7

while.end:                                        ; preds = %while.cond
  %61 = load i32, ptr %s2, align 4
  %shl = shl i32 %61, 16
  %62 = load i32, ptr %s1, align 4
  %add49 = add i32 %shl, %62
  %conv50 = zext i32 %add49 to i64
  store i64 %conv50, ptr %retval, align 8
  br label %return

return:                                           ; preds = %while.end, %if.then
  %63 = load i64, ptr %retval, align 8
  ret i64 %63
}