; Function Attrs: nofree norecurse nosync nounwind memory(argmem: read) uwtable
define hidden range(i64 0, 4294967296) i64 @mz_adler32(i64 noundef %adler, ptr noundef readonly %ptr, i64 noundef %buf_len) local_unnamed_addr #0 {
entry:
  %tobool.not = icmp eq ptr %ptr, null
  br i1 %tobool.not, label %return, label %while.cond.preheader

while.cond.preheader:                             ; preds = %entry
  %shr = lshr i64 %adler, 16
  %conv1 = trunc i64 %shr to i32
  %0 = trunc i64 %adler to i32
  %conv = and i32 %0, 65535
  %tobool2.not65 = icmp eq i64 %buf_len, 0
  br i1 %tobool2.not65, label %while.end, label %for.cond.preheader.preheader

for.cond.preheader.preheader:                     ; preds = %while.cond.preheader
  %rem = urem i64 %buf_len, 5552
  br label %for.cond.preheader

for.cond.preheader:                               ; preds = %for.cond.preheader.preheader, %for.end46
  %block_len.070 = phi i64 [ 5552, %for.end46 ], [ %rem, %for.cond.preheader.preheader ]
  %s2.069 = phi i32 [ %rem48, %for.end46 ], [ %conv1, %for.cond.preheader.preheader ]
  %s1.068 = phi i32 [ %rem47, %for.end46 ], [ %conv, %for.cond.preheader.preheader ]
  %buf_len.addr.067 = phi i64 [ %sub, %for.end46 ], [ %buf_len, %for.cond.preheader.preheader ]
  %ptr.addr.066 = phi ptr [ %ptr.addr.2.lcssa, %for.end46 ], [ %ptr, %for.cond.preheader.preheader ]
  %cmp48 = icmp samesign ugt i64 %block_len.070, 7
  br i1 %cmp48, label %for.body.preheader, label %for.cond37.preheader

for.body.preheader:                               ; preds = %for.cond.preheader
  %1 = trunc nuw nsw i64 %block_len.070 to i32
  br label %for.body

for.cond37.preheader.loopexit:                    ; preds = %for.body
  %2 = zext i32 %add36 to i64
  br label %for.cond37.preheader

for.cond37.preheader:                             ; preds = %for.cond37.preheader.loopexit, %for.cond.preheader
  %ptr.addr.1.lcssa = phi ptr [ %ptr.addr.066, %for.cond.preheader ], [ %add.ptr, %for.cond37.preheader.loopexit ]
  %i.0.lcssa = phi i64 [ 0, %for.cond.preheader ], [ %2, %for.cond37.preheader.loopexit ]
  %s1.1.lcssa = phi i32 [ %s1.068, %for.cond.preheader ], [ %add34, %for.cond37.preheader.loopexit ]
  %s2.1.lcssa = phi i32 [ %s2.069, %for.cond.preheader ], [ %add35, %for.cond37.preheader.loopexit ]
  %cmp3957 = icmp samesign ugt i64 %block_len.070, %i.0.lcssa
  br i1 %cmp3957, label %for.body41.preheader, label %for.end46

for.body41.preheader:                             ; preds = %for.cond37.preheader
  %3 = sub nuw nsw i64 %block_len.070, %i.0.lcssa
  br label %for.body41

for.body:                                         ; preds = %for.body.preheader, %for.body
  %s2.152 = phi i32 [ %add35, %for.body ], [ %s2.069, %for.body.preheader ]
  %s1.151 = phi i32 [ %add34, %for.body ], [ %s1.068, %for.body.preheader ]
  %i.050 = phi i32 [ %add36, %for.body ], [ 0, %for.body.preheader ]
  %ptr.addr.149 = phi ptr [ %add.ptr, %for.body ], [ %ptr.addr.066, %for.body.preheader ]
  %4 = load i8, ptr %ptr.addr.149, align 1
  %conv5 = zext i8 %4 to i32
  %add6 = add i32 %s1.151, %conv5
  %add7 = add i32 %add6, %s2.152
  %arrayidx8 = getelementptr inbounds nuw i8, ptr %ptr.addr.149, i64 1
  %5 = load i8, ptr %arrayidx8, align 1
  %conv9 = zext i8 %5 to i32
  %add10 = add i32 %add6, %conv9
  %add11 = add i32 %add7, %add10
  %arrayidx12 = getelementptr inbounds nuw i8, ptr %ptr.addr.149, i64 2
  %6 = load i8, ptr %arrayidx12, align 1
  %conv13 = zext i8 %6 to i32
  %add14 = add i32 %add10, %conv13
  %add15 = add i32 %add11, %add14
  %arrayidx16 = getelementptr inbounds nuw i8, ptr %ptr.addr.149, i64 3
  %7 = load i8, ptr %arrayidx16, align 1
  %conv17 = zext i8 %7 to i32
  %add18 = add i32 %add14, %conv17
  %add19 = add i32 %add15, %add18
  %arrayidx20 = getelementptr inbounds nuw i8, ptr %ptr.addr.149, i64 4
  %8 = load i8, ptr %arrayidx20, align 1
  %conv21 = zext i8 %8 to i32
  %add22 = add i32 %add18, %conv21
  %add23 = add i32 %add19, %add22
  %arrayidx24 = getelementptr inbounds nuw i8, ptr %ptr.addr.149, i64 5
  %9 = load i8, ptr %arrayidx24, align 1
  %conv25 = zext i8 %9 to i32
  %add26 = add i32 %add22, %conv25
  %add27 = add i32 %add23, %add26
  %arrayidx28 = getelementptr inbounds nuw i8, ptr %ptr.addr.149, i64 6
  %10 = load i8, ptr %arrayidx28, align 1
  %conv29 = zext i8 %10 to i32
  %add30 = add i32 %add26, %conv29
  %add31 = add i32 %add27, %add30
  %arrayidx32 = getelementptr inbounds nuw i8, ptr %ptr.addr.149, i64 7
  %11 = load i8, ptr %arrayidx32, align 1
  %conv33 = zext i8 %11 to i32
  %add34 = add i32 %add30, %conv33
  %add35 = add i32 %add31, %add34
  %add36 = add nuw i32 %i.050, 8
  %add.ptr = getelementptr inbounds nuw i8, ptr %ptr.addr.149, i64 8
  %add = or disjoint i32 %add36, 7
  %cmp = icmp ult i32 %add, %1
  br i1 %cmp, label %for.body, label %for.cond37.preheader.loopexit, !llvm.loop !4

for.body41:                                       ; preds = %for.body41.preheader, %for.body41
  %indvars.iv = phi i64 [ %i.0.lcssa, %for.body41.preheader ], [ %indvars.iv.next, %for.body41 ]
  %s2.261 = phi i32 [ %s2.1.lcssa, %for.body41.preheader ], [ %add44, %for.body41 ]
  %s1.260 = phi i32 [ %s1.1.lcssa, %for.body41.preheader ], [ %add43, %for.body41 ]
  %ptr.addr.258 = phi ptr [ %ptr.addr.1.lcssa, %for.body41.preheader ], [ %incdec.ptr, %for.body41 ]
  %incdec.ptr = getelementptr inbounds nuw i8, ptr %ptr.addr.258, i64 1
  %12 = load i8, ptr %ptr.addr.258, align 1
  %conv42 = zext i8 %12 to i32
  %add43 = add i32 %s1.260, %conv42
  %add44 = add i32 %add43, %s2.261
  %indvars.iv.next = add nuw nsw i64 %indvars.iv, 1
  %exitcond.not = icmp eq i64 %indvars.iv.next, %block_len.070
  br i1 %exitcond.not, label %for.end46.loopexit, label %for.body41, !llvm.loop !6

for.end46.loopexit:                               ; preds = %for.body41
  %scevgep = getelementptr i8, ptr %ptr.addr.1.lcssa, i64 %3
  br label %for.end46

for.end46:                                        ; preds = %for.end46.loopexit, %for.cond37.preheader
  %ptr.addr.2.lcssa = phi ptr [ %ptr.addr.1.lcssa, %for.cond37.preheader ], [ %scevgep, %for.end46.loopexit ]
  %s1.2.lcssa = phi i32 [ %s1.1.lcssa, %for.cond37.preheader ], [ %add43, %for.end46.loopexit ]
  %s2.2.lcssa = phi i32 [ %s2.1.lcssa, %for.cond37.preheader ], [ %add44, %for.end46.loopexit ]
  %rem47 = urem i32 %s1.2.lcssa, 65521
  %rem48 = urem i32 %s2.2.lcssa, 65521
  %sub = sub i64 %buf_len.addr.067, %block_len.070
  %tobool2.not = icmp eq i64 %sub, 0
  br i1 %tobool2.not, label %while.end, label %for.cond.preheader, !llvm.loop !7

while.end:                                        ; preds = %for.end46, %while.cond.preheader
  %s1.0.lcssa = phi i32 [ %conv, %while.cond.preheader ], [ %rem47, %for.end46 ]
  %s2.0.lcssa = phi i32 [ %conv1, %while.cond.preheader ], [ %rem48, %for.end46 ]
  %shl = shl i32 %s2.0.lcssa, 16
  %add49 = or disjoint i32 %shl, %s1.0.lcssa
  %conv50 = zext i32 %add49 to i64
  br label %return

return:                                           ; preds = %entry, %while.end
  %retval.0 = phi i64 [ %conv50, %while.end ], [ 1, %entry ]
  ret i64 %retval.0
}